target datalayout = "e-m:e-p270:32:32-p271:32:32-p272:64:64-i64:64-i128:128-f80:128-n8:16:32:64-S128"
target triple = "x86_64-pc-linux-gnu"

%class.LIR_Opr = type { i64 }
%class.LIR_Op = type { ptr, %class.LIR_Opr, i16, i16, ptr, i32, i32, ptr }
%class.LIR_OpArrayCopy = type <{ %class.LIR_Op, ptr, %class.LIR_Opr, %class.LIR_Opr, %class.LIR_Opr, %class.LIR_Opr, %class.LIR_Opr, %class.LIR_Opr, ptr, i32, [4 x i8] }>

; Function Attrs: mustprogress nounwind uwtable
define linkonce_odr hidden noundef ptr @_ZNK15LIR_OpArrayCopy4stubEv(ptr noundef nonnull align 8 dereferenceable(116) %0) #1 comdat align 2 {
  %2 = alloca ptr, align 8
  store ptr %0, ptr %2, align 8
  %3 = load ptr, ptr %2, align 8
  %4 = getelementptr inbounds %class.LIR_OpArrayCopy, ptr %3, i32 0, i32 1
  %5 = load ptr, ptr %4, align 8
  ret ptr %5
}

; Function Attrs: mustprogress nounwind uwtable
define hidden void @_ZN15LIR_OpArrayCopy9emit_codeEP13LIR_Assembler(ptr noundef nonnull align 8 dereferenceable(116) %0, ptr noundef %1) unnamed_addr #1 align 2 {
  %3 = alloca ptr, align 8
  %4 = alloca ptr, align 8
  %5 = alloca ptr, align 8
  store ptr %0, ptr %3, align 8
  store ptr %1, ptr %4, align 8
  %6 = load ptr, ptr %3, align 8
  %7 = load ptr, ptr %4, align 8
  call void @_ZN13LIR_Assembler14emit_arraycopyEP15LIR_OpArrayCopy(ptr noundef nonnull align 8 dereferenceable(96) %7, ptr noundef %6)
  %8 = call noundef ptr @_ZNK15LIR_OpArrayCopy4stubEv(ptr noundef nonnull align 8 dereferenceable(116) %6)
  store ptr %8, ptr %5, align 8
  %9 = load ptr, ptr %5, align 8
  %10 = icmp ne ptr %9, null
  br i1 %10, label %11, label %14

11:                                               ; preds = %2
  %12 = load ptr, ptr %4, align 8
  %13 = load ptr, ptr %5, align 8
  call void @_ZN13LIR_Assembler16append_code_stubEP8CodeStub(ptr noundef nonnull align 8 dereferenceable(96) %12, ptr noundef %13)
  br label %14

14:                                               ; preds = %11, %2
  ret void
}