; Function Attrs: mustprogress nounwind uwtable
define hidden void @_ZN15LIR_OpArrayCopy9emit_codeEP13LIR_Assembler(ptr noundef nonnull align 8 dereferenceable(116) %0, ptr noundef nonnull %1) unnamed_addr #1 align 2 {
  tail call void @_ZN13LIR_Assembler14emit_arraycopyEP15LIR_OpArrayCopy(ptr noundef nonnull align 8 dereferenceable(96) %1, ptr noundef nonnull %0) #11
  %3 = getelementptr inbounds i8, ptr %0, i64 48
  %4 = load ptr, ptr %3, align 8
  %.not = icmp eq ptr %4, null
  br i1 %.not, label %6, label %5

5:                                                ; preds = %2
  tail call void @_ZN13LIR_Assembler16append_code_stubEP8CodeStub(ptr noundef nonnull align 8 dereferenceable(96) %1, ptr noundef nonnull %4) #11
  br label %6

6:                                                ; preds = %5, %2
  ret void
}